; Function Attrs: mustprogress uwtable
define internal fastcc void @_ZN3nixL13readFileRootsEPKcRSt13unordered_mapINSt7__cxx1112basic_stringIcSt11char_traitsIcESaIcEEESt13unordered_setIS8_St4hashIS8_ESt8equal_toIS8_ESaIS8_EESB_SD_SaISt4pairIKS8_SF_EEE(ptr noundef %0, ptr noundef nonnull align 8 dereferenceable(56) %1) unnamed_addr #5 personality ptr @__gxx_personality_v0 {
  %3 = alloca ptr, align 8
  %4 = alloca %"class.std::__cxx11::basic_string", align 8
  %5 = alloca %"class.std::__cxx11::basic_string", align 8
  %6 = alloca %"class.std::allocator", align 1
  store ptr %0, ptr %3, align 8
  call void @_ZNSaIcEC1Ev(ptr noundef nonnull align 1 dereferenceable(1) %6) #32
  invoke void @_ZNSt7__cxx1112basic_stringIcSt11char_traitsIcESaIcEEC2IS3_EEPKcRKS3_(ptr noundef nonnull align 8 dereferenceable(32) %5, ptr noundef %0, ptr noundef nonnull align 1 dereferenceable(1) %6)
          to label %7 unwind label %23

7:                                                ; preds = %2
  invoke void @_ZN3nix8readFileERKNSt7__cxx1112basic_stringIcSt11char_traitsIcESaIcEEE(ptr dead_on_unwind nonnull writable sret(%"class.std::__cxx11::basic_string") align 8 %4, ptr noundef nonnull align 8 dereferenceable(32) %5)
          to label %8 unwind label %25

8:                                                ; preds = %7
  %9 = invoke noundef nonnull align 8 dereferenceable(56) ptr @_ZNSt8__detail9_Map_baseINSt7__cxx1112basic_stringIcSt11char_traitsIcESaIcEEESt4pairIKS6_St13unordered_setIS6_St4hashIS6_ESt8equal_toIS6_ESaIS6_EEESaISG_ENS_10_Select1stESD_SB_NS_18_Mod_range_hashingENS_20_Default_ranged_hashENS_20_Prime_rehash_policyENS_17_Hashtable_traitsILb1ELb0ELb1EEELb1EEixEOS6_(ptr noundef nonnull align 1 dereferenceable(1) %1, ptr noundef nonnull align 8 dereferenceable(32) %4)
          to label %_ZNSt13unordered_mapINSt7__cxx1112basic_stringIcSt11char_traitsIcESaIcEEESt13unordered_setIS5_St4hashIS5_ESt8equal_toIS5_ESaIS5_EES8_SA_SaISt4pairIKS5_SC_EEEixEOS5_.exit unwind label %27

_ZNSt13unordered_mapINSt7__cxx1112basic_stringIcSt11char_traitsIcESaIcEEESt13unordered_setIS5_St4hashIS5_ESt8equal_toIS5_ESaIS5_EES8_SA_SaISt4pairIKS5_SC_EEEixEOS5_.exit: ; preds = %8
  %10 = invoke { ptr, i8 } @_ZNSt10_HashtableINSt7__cxx1112basic_stringIcSt11char_traitsIcESaIcEEES5_SaIS5_ENSt8__detail9_IdentityESt8equal_toIS5_ESt4hashIS5_ENS7_18_Mod_range_hashingENS7_20_Default_ranged_hashENS7_20_Prime_rehash_policyENS7_17_Hashtable_traitsILb1ELb1ELb1EEEE10_M_emplaceIJRPKcEEESt4pairINS7_14_Node_iteratorIS5_Lb1ELb1EEEbESt17integral_constantIbLb1EEDpOT_(ptr noundef nonnull align 8 dereferenceable(56) %9, ptr noundef nonnull align 8 dereferenceable(8) %3)
          to label %_ZNSt13unordered_setINSt7__cxx1112basic_stringIcSt11char_traitsIcESaIcEEESt4hashIS5_ESt8equal_toIS5_ESaIS5_EE7emplaceIJRPKcEEESt4pairINSt8__detail14_Node_iteratorIS5_Lb1ELb1EEEbEDpOT_.exit unwind label %27

_ZNSt13unordered_setINSt7__cxx1112basic_stringIcSt11char_traitsIcESaIcEEESt4hashIS5_ESt8equal_toIS5_ESaIS5_EE7emplaceIJRPKcEEESt4pairINSt8__detail14_Node_iteratorIS5_Lb1ELb1EEEbEDpOT_.exit: ; preds = %_ZNSt13unordered_mapINSt7__cxx1112basic_stringIcSt11char_traitsIcESaIcEEESt13unordered_setIS5_St4hashIS5_ESt8equal_toIS5_ESaIS5_EES8_SA_SaISt4pairIKS5_SC_EEEixEOS5_.exit
  %11 = load ptr, ptr %4, align 8
  %12 = getelementptr inbounds i8, ptr %4, i64 16
  %13 = icmp eq ptr %11, %12
  br i1 %13, label %_ZNKSt7__cxx1112basic_stringIcSt11char_traitsIcESaIcEE11_M_is_localEv.exit.thread.i.i, label %_ZNKSt7__cxx1112basic_stringIcSt11char_traitsIcESaIcEE11_M_is_localEv.exit.i.i

_ZNKSt7__cxx1112basic_stringIcSt11char_traitsIcESaIcEE11_M_is_localEv.exit.thread.i.i: ; preds = %_ZNSt13unordered_setINSt7__cxx1112basic_stringIcSt11char_traitsIcESaIcEEESt4hashIS5_ESt8equal_toIS5_ESaIS5_EE7emplaceIJRPKcEEESt4pairINSt8__detail14_Node_iteratorIS5_Lb1ELb1EEEbEDpOT_.exit
  %14 = getelementptr inbounds i8, ptr %4, i64 8
  %15 = load i64, ptr %14, align 8
  %16 = icmp ult i64 %15, 16
  call void @llvm.assume(i1 %16)
  br label %_ZNSt7__cxx1112basic_stringIcSt11char_traitsIcESaIcEED2Ev.exit

_ZNKSt7__cxx1112basic_stringIcSt11char_traitsIcESaIcEE11_M_is_localEv.exit.i.i: ; preds = %_ZNSt13unordered_setINSt7__cxx1112basic_stringIcSt11char_traitsIcESaIcEEESt4hashIS5_ESt8equal_toIS5_ESaIS5_EE7emplaceIJRPKcEEESt4pairINSt8__detail14_Node_iteratorIS5_Lb1ELb1EEEbEDpOT_.exit
  call void @_ZdlPv(ptr noundef %11) #35
  br label %_ZNSt7__cxx1112basic_stringIcSt11char_traitsIcESaIcEED2Ev.exit

_ZNSt7__cxx1112basic_stringIcSt11char_traitsIcESaIcEED2Ev.exit: ; preds = %_ZNKSt7__cxx1112basic_stringIcSt11char_traitsIcESaIcEE11_M_is_localEv.exit.thread.i.i, %_ZNKSt7__cxx1112basic_stringIcSt11char_traitsIcESaIcEE11_M_is_localEv.exit.i.i
  call void @_ZNSaIcED2Ev(ptr noundef nonnull align 1 dereferenceable(1) %4) #32
  %17 = load ptr, ptr %5, align 8
  %18 = getelementptr inbounds i8, ptr %5, i64 16
  %19 = icmp eq ptr %17, %18
  br i1 %19, label %_ZNKSt7__cxx1112basic_stringIcSt11char_traitsIcESaIcEE11_M_is_localEv.exit.thread.i.i14, label %_ZNKSt7__cxx1112basic_stringIcSt11char_traitsIcESaIcEE11_M_is_localEv.exit.i.i13

_ZNKSt7__cxx1112basic_stringIcSt11char_traitsIcESaIcEE11_M_is_localEv.exit.thread.i.i14: ; preds = %_ZNSt7__cxx1112basic_stringIcSt11char_traitsIcESaIcEED2Ev.exit
  %20 = getelementptr inbounds i8, ptr %5, i64 8
  %21 = load i64, ptr %20, align 8
  %22 = icmp ult i64 %21, 16
  call void @llvm.assume(i1 %22)
  br label %_ZNSt7__cxx1112basic_stringIcSt11char_traitsIcESaIcEED2Ev.exit15

_ZNKSt7__cxx1112basic_stringIcSt11char_traitsIcESaIcEE11_M_is_localEv.exit.i.i13: ; preds = %_ZNSt7__cxx1112basic_stringIcSt11char_traitsIcESaIcEED2Ev.exit
  call void @_ZdlPv(ptr noundef %17) #35
  br label %_ZNSt7__cxx1112basic_stringIcSt11char_traitsIcESaIcEED2Ev.exit15

_ZNSt7__cxx1112basic_stringIcSt11char_traitsIcESaIcEED2Ev.exit15: ; preds = %_ZNKSt7__cxx1112basic_stringIcSt11char_traitsIcESaIcEE11_M_is_localEv.exit.thread.i.i14, %_ZNKSt7__cxx1112basic_stringIcSt11char_traitsIcESaIcEE11_M_is_localEv.exit.i.i13
  call void @_ZNSaIcED2Ev(ptr noundef nonnull align 1 dereferenceable(1) %5) #32
  call void @_ZNSaIcED1Ev(ptr noundef nonnull align 1 dereferenceable(1) %6) #32
  br label %41

23:                                               ; preds = %2
  %24 = landingpad { ptr, i32 }
          cleanup
          catch ptr @_ZTIN3nix8SysErrorE
  br label %30

25:                                               ; preds = %7
  %26 = landingpad { ptr, i32 }
          cleanup
          catch ptr @_ZTIN3nix8SysErrorE
  br label %29

27:                                               ; preds = %_ZNSt13unordered_mapINSt7__cxx1112basic_stringIcSt11char_traitsIcESaIcEEESt13unordered_setIS5_St4hashIS5_ESt8equal_toIS5_ESaIS5_EES8_SA_SaISt4pairIKS5_SC_EEEixEOS5_.exit, %8
  %28 = landingpad { ptr, i32 }
          cleanup
          catch ptr @_ZTIN3nix8SysErrorE
  call void @_ZNSt7__cxx1112basic_stringIcSt11char_traitsIcESaIcEED2Ev(ptr noundef nonnull align 8 dereferenceable(32) %4) #32
  br label %29

29:                                               ; preds = %27, %25
  %.pn = phi { ptr, i32 } [ %28, %27 ], [ %26, %25 ]
  call void @_ZNSt7__cxx1112basic_stringIcSt11char_traitsIcESaIcEED2Ev(ptr noundef nonnull align 8 dereferenceable(32) %5) #32
  br label %30

30:                                               ; preds = %29, %23
  %.pn.pn = phi { ptr, i32 } [ %.pn, %29 ], [ %24, %23 ]
  %.17 = extractvalue { ptr, i32 } %.pn.pn, 1
  call void @_ZNSaIcED1Ev(ptr noundef nonnull align 1 dereferenceable(1) %6) #32
  %31 = call i32 @llvm.eh.typeid.for(ptr nonnull @_ZTIN3nix8SysErrorE) #32
  %32 = icmp eq i32 %.17, %31
  br i1 %32, label %33, label %42

33:                                               ; preds = %30
  %.1 = extractvalue { ptr, i32 } %.pn.pn, 0
  %34 = call ptr @__cxa_begin_catch(ptr %.1) #32
  %35 = getelementptr inbounds i8, ptr %34, i64 376
  %36 = load i32, ptr %35, align 8
  switch i32 %36, label %37 [
    i32 2, label %40
    i32 13, label %40
  ]

37:                                               ; preds = %33
  invoke void @__cxa_rethrow() #33
          to label %46 unwind label %38

38:                                               ; preds = %37
  %39 = landingpad { ptr, i32 }
          cleanup
  invoke void @__cxa_end_catch()
          to label %42 unwind label %43

40:                                               ; preds = %33, %33
  call void @__cxa_end_catch()
  br label %41

41:                                               ; preds = %40, %_ZNSt7__cxx1112basic_stringIcSt11char_traitsIcESaIcEED2Ev.exit15
  ret void

42:                                               ; preds = %38, %30
  %.merged = phi { ptr, i32 } [ %39, %38 ], [ %.pn.pn, %30 ]
  resume { ptr, i32 } %.merged

43:                                               ; preds = %38
  %44 = landingpad { ptr, i32 }
          catch ptr null
  %45 = extractvalue { ptr, i32 } %44, 0
  call void @__clang_call_terminate(ptr %45) #37
  unreachable

46:                                               ; preds = %37
  unreachable
}